; Function Attrs: mustprogress uwtable
define hidden void @_ZNK19OpenColorIO_v2_5dev10OpRcPtrVec8validateEv(ptr noundef nonnull readonly align 8 captures(none) dereferenceable(144) %0) local_unnamed_addr #6 align 2 {
  %2 = load ptr, ptr %0, align 8, !tbaa !202
  %3 = getelementptr inbounds nuw i8, ptr %0, i64 8
  %4 = load ptr, ptr %3, align 8, !tbaa !202
  %.not7 = icmp eq ptr %2, %4
  br i1 %.not7, label %._crit_edge, label %.lr.ph

._crit_edge:                                      ; preds = %.lr.ph, %1
  ret void

.lr.ph:                                           ; preds = %1, %.lr.ph
  %.sroa.04.08 = phi ptr [ %11, %.lr.ph ], [ %2, %1 ]
  %5 = load ptr, ptr %.sroa.04.08, align 8, !tbaa !59
  %6 = getelementptr inbounds nuw i8, ptr %5, i64 8
  %7 = load ptr, ptr %6, align 8, !tbaa !14
  %8 = load ptr, ptr %7, align 8, !tbaa !3
  %9 = getelementptr inbounds nuw i8, ptr %8, i64 16
  %10 = load ptr, ptr %9, align 8
  tail call void %10(ptr noundef nonnull align 8 dereferenceable(168) %7)
  %11 = getelementptr inbounds nuw i8, ptr %.sroa.04.08, i64 16
  %.not = icmp eq ptr %11, %4
  br i1 %.not, label %._crit_edge, label %.lr.ph
}